(lp0
(lp1
I4106
aI14
aI4111
aI16
aI4113
aI4114
aI4116
aI4117
aI25
aI4123
aI2076
aI4131
aI2084
aI4134
aI2090
aI4139
aI4147
aI4149
aI4150
aI2104
aI2108
aI62
aI4159
aI2115
aI2118
aI2121
aI2125
aI4176
aI2744
aI2062
aI2149
aI4199
aI2154
aI4203
aI4209
aI4218
aI4226
aI3806
aI5142
aI4231
aI136
aI4237
aI2199
aI4248
aI4249
aI4256
aI162
aI2220
aI4271
aI178
aI2227
aI4278
aI186
aI4286
aI194
aI1398
aI198
aI201
aI203
aI207
aI4305
aI2260
aI4311
aI4313
aI219
aI229
aI4328
aI2281
aI239
aI4338
aI4345
aI2298
aI253
aI4350
aI4351
aI257
aI4357
aI263
aI267
aI2318
aI277
aI4376
aI2329
aI4379
aI4380
aI4381
aI4387
aI4396
aI301
aI308
aI4405
aI2358
aI4413
aI4414
aI4415
aI320
aI2377
aI330
aI335
aI336
aI4433
aI4439
aI5519
aI4445
aI351
aI2402
aI5181
aI5864
aI2452
aI4480
aI2447
aI4500
aI2454
aI2455
aI1093
aI4513
aI4522
aI2478
aI4528
aI4531
aI3828
aI2492
aI448
aI4551
aI4554
aI460
aI4574
aI5949
aI2539
aI1448
aI4606
aI3840
aI4610
aI4614
aI519
aI4617
aI4619
aI4620
aI4625
aI530
aI4631
aI542
aI4639
aI546
aI1116
aI2604
aI566
aI3849
aI4665
aI2620
aI4670
aI2628
aI3511
aI2647
aI600
aI603
aI607
aI4705
aI2663
aI2151
aI2682
aI635
aI2688
aI641
aI2693
aI4744
aI4746
aI651
aI2700
aI2701
aI662
aI4759
aI664
aI4772
aI678
aI2739
aI692
aI4792
aI4795
aI4799
aI4800
aI708
aI709
aI4807
aI720
aI4818
aI4828
aI734
aI2786
aI4836
aI751
aI752
aI4859
aI2813
aI2817
aI771
aI776
aI780
aI2829
aI4885
aI791
aI4891
aI4892
aI4896
aI807
aI2856
aI809
aI4907
aI4908
aI2867
aI2875
aI4927
aI2886
aI2889
aI2896
aI4946
aI853
aI4951
aI859
aI2908
aI4960
aI4962
aI867
aI4964
aI2917
aI4971
aI877
aI4975
aI2928
aI4977
aI2934
aI4984
aI890
aI4999
aI2954
aI907
aI917
aI2967
aI5019
aI2975
aI5025
aI5028
aI5038
aI944
aI2994
aI2995
aI948
aI5046
aI3002
aI3004
aI3009
aI970
aI3023
aI977
aI5079
aI5082
aI995
aI3044
aI3045
aI1000
aI3050
aI1004
aI3055
aI3068
aI3925
aI3073
aI1030
aI1031
aI5130
aI3088
aI3090
aI1046
aI3095
aI3098
aI1053
aI1055
aI3105
aI2907
aI3108
aI3115
aI3118
aI3122
aI3125
aI521
aI3128
aI1081
aI1083
aI3133
aI5182
aI3136
aI3141
aI3146
aI5196
aI5203
aI1111
aI5210
aI5212
aI3166
aI5218
aI1124
aI5225
aI5228
aI5231
aI5235
aI1152
aI3202
aI1158
aI2925
aI3217
aI1172
aI3230
aI880
aI881
aI3242
aI3247
aI1201
aI3264
aI3268
aI5318
aI3271
aI1229
aI3279
aI1814
aI3295
aI5346
aI3301
aI5355
aI3282
aI3313
aI1276
aI3331
aI1285
aI5385
aI3341
aI2839
aI3348
aI3355
aI5412
aI5413
aI3367
aI903
aI3373
aI1327
aI5432
aI3388
aI1341
aI3394
aI1353
aI4955
aI1357
aI1363
aI3413
aI3414
aI5465
aI1371
aI1372
aI3424
aI3440
aI3446
aI1407
aI1408
aI1417
aI1419
aI3468
aI3469
aI1423
aI3496
aI3655
aI3997
aI3506
aI5556
aI1462
aI1463
aI5560
aI1466
aI5567
aI3523
aI3525
aI3526
aI1489
aI3539
aI5591
aI1497
aI1501
aI1508
aI3562
aI2301
aI5616
aI3570
aI5619
aI3573
aI1527
aI1529
aI3579
aI3580
aI3589
aI3590
aI5644
aI1283
aI5652
aI3611
aI3617
aI5669
aI3623
aI5672
aI3625
aI3626
aI3677
aI5685
aI1594
aI1598
aI3647
aI1600
aI1601
aI3651
aI3652
aI1607
aI3657
aI3660
aI5710
aI1616
aI5713
aI3668
aI1622
aI3671
aI1629
aI5728
aI1639
aI1646
aI5746
aI3703
aI5752
aI3710
aI1664
aI5768
aI3721
aI1675
aI3726
aI5775
aI5778
aI3735
aI5784
aI5787
aI5791
aI3745
aI5794
aI3750
aI3755
aI3770
aI5820
aI5822
aI5823
aI3777
aI5830
aI3784
aI5835
aI5843
aI3800
aI3803
aI1758
aI3807
aI1763
aI1768
aI1770
aI2303
aI1775
aI1777
aI1780
aI1789
aI1792
aI1793
aI3843
aI300
aI3850
aI3031
aI3852
aI5908
aI3129
aI5910
aI2009
aI1816
aI1819
aI2010
aI4741
aI3873
aI3877
aI3900
aI1853
aI1855
aI5955
aI3909
aI3913
aI5962
aI3919
aI1872
aI1877
aI3926
aI3928
aI1881
aI3930
aI3933
aI3937
aI5995
aI1901
aI3952
aI3954
aI3957
aI6009
aI5098
aI1918
aI3969
aI3970
aI3972
aI1930
aI3979
aI3984
aI3991
aI3994
aI1949
aI4000
aI1957
aI4013
aI3680
aI4026
aI1695
aI1981
aI1984
aI4044
aI4048
aI4050
aI4052
aI4057
aI4058
aI4061
aI4065
aI4066
aI4070
aI4074
aI954
aI4084
aI4087
aI1365
aa(lp2
I4096
aI4097
aI4102
aI7
aI4105
aI13
aI2064
aI19
aI22
aI2073
aI3418
aI3760
aI2082
aI37
aI2086
aI2089
aI42
aI2095
aI54
aI60
aI4163
aI4165
aI70
aI4435
aI79
aI1720
aI2133
aI4183
aI4187
aI2140
aI4193
aI2152
aI105
aI2155
aI4205
aI110
aI114
aI1043
aI1504
aI2169
aI2170
aI2175
aI4224
aI5824
aI2178
aI363
aI2183
aI140
aI141
aI4239
aI144
aI151
aI156
aI158
aI2208
aI2211
aI2212
aI4261
aI4265
aI4269
aI2224
aI2226
aI2228
aI4281
aI188
aI2242
aI195
aI2246
aI199
aI2764
aI4299
aI2252
aI4306
aI2259
aI5599
aI2265
aI220
aI2270
aI2273
aI4324
aI4325
aI2279
aI2280
aI4329
aI4339
aI2293
aI246
aI2296
aI2300
aI255
aI260
aI261
aI4358
aI2315
aI271
aI274
aI2324
aI2325
aI1753
aI281
aI282
aI1071
aI287
aI2336
aI2337
aI298
aI2347
aI2349
aI4399
aI2352
aI4401
aI4402
aI2355
aI2357
aI2359
aI312
aI2361
aI2363
aI4412
aI736
aI2370
aI2373
aI2376
aI4428
aI4431
aI4434
aI2387
aI4440
aI4444
aI2397
aI2398
aI352
aI2411
aI364
aI2413
aI2414
aI2417
aI2420
aI377
aI379
aI380
aI2430
aI383
aI387
aI2439
aI2443
aI2445
aI2448
aI5870
aI4502
aI416
aI4517
aI422
aI424
aI427
aI431
aI435
aI4535
aI440
aI2489
aI4541
aI3147
aI4548
aI4549
aI457
aI3766
aI2513
aI467
aI2523
aI2526
aI2530
aI4581
aI3153
aI2535
aI2538
aI494
aI496
aI2548
aI2553
aI510
aI511
aI512
aI1108
aI2565
aI2567
aI520
aI2569
aI522
aI2135
aI524
aI4621
aI1995
aI5814
aI4628
aI533
aI537
aI2586
aI539
aI2588
aI4640
aI4641
aI774
aI4647
aI552
aI553
aI554
aI2603
aI3165
aI2609
aI2611
aI564
aI567
aI568
aI4666
aI3167
aI572
aI575
aI576
aI4673
aI2827
aI2631
aI2640
aI4536
aI594
aI2643
aI1465
aI4697
aI4700
aI2653
aI4702
aI610
aI4708
aI4711
aI622
aI4720
aI2673
aI4726
aI1812
aI2687
aI4736
aI2695
aI652
aI4750
aI4754
aI4758
aI2712
aI4762
aI2717
aI2719
aI2721
aI674
aI2727
aI682
aI685
aI4211
aI4553
aI700
aI4798
aI703
aI4804
aI2763
aI716
aI1524
aI4816
aI1141
aI4820
aI4821
aI2781
aI5925
aI4832
aI4834
aI2789
aI4838
aI2791
aI2793
aI4846
aI2800
aI4849
aI754
aI755
aI4852
aI3892
aI4856
aI762
aI767
aI2818
aI772
aI2822
aI4871
aI2826
aI4875
aI2831
aI4880
aI2835
aI790
aI4889
aI2843
aI800
aI4899
aI808
aI2857
aI2864
aI2866
aI4919
aI825
aI3551
aI4925
aI832
aI833
aI4934
aI840
aI4937
aI2891
aI551
aI2897
aI851
aI4948
aI4921
aI4953
aI4954
aI2191
aI4958
aI2911
aI2916
aI2919
aI886
aI889
aI892
aI4991
aI2948
aI3906
aI911
aI913
aI5013
aI921
aI5021
aI2977
aI5026
aI5030
aI2983
aI938
aI5035
aI940
aI941
aI1181
aI2888
aI5961
aI5048
aI500
aI957
aI958
aI5055
aI3014
aI5065
aI971
aI973
aI975
aI982
aI986
aI5967
aI3036
aI5085
aI3039
aI3041
aI3042
aI3059
aI1013
aI3062
aI852
aI3067
aI1023
aI5121
aI3075
aI5127
aI5128
aI3081
aI989
aI1035
aI3085
aI1039
aI1539
aI1047
aI1051
aI1054
aI1063
aI3112
aI1065
aI1070
aI3119
aI5168
aI3121
aI1076
aI5173
aI2559
aI3140
aI1094
aI3144
aI1207
aI3149
aI1105
aI3154
aI3155
aI3156
aI3159
aI3163
aI1117
aI5215
aI5220
aI3175
aI3176
aI5227
aI3182
aI1214
aI1142
aI5240
aI3194
aI3199
aI3201
aI5250
aI1156
aI1217
aI3211
aI5260
aI3218
aI3220
aI1173
aI3224
aI5273
aI538
aI5279
aI5289
aI1195
aI3244
aI3254
aI3255
aI5308
aI1931
aI5313
aI5314
aI1220
aI3270
aI2291
aI5321
aI3274
aI2804
aI5326
aI1234
aI1236
aI1249
aI1252
aI1253
aI307
aI1256
aI5353
aI5354
aI2599
aI1266
aI4649
aI3320
aI5376
aI1920
aI5379
aI3333
aI5383
aI3340
aI3346
aI1302
aI1303
aI5402
aI1308
aI3357
aI3358
aI5408
aI1953
aI1315
aI3365
aI3368
aI3372
aI5424
aI3378
aI1331
aI3380
aI3381
aI5434
aI3387
aI3395
aI5447
aI5450
aI3406
aI3408
aI3410
aI5459
aI3412
aI1366
aI5463
aI1370
aI5007
aI5468
aI2618
aI5470
aI5349
aI2619
aI5477
aI3430
aI3433
aI3434
aI1387
aI3439
aI1394
aI1396
aI1397
aI5501
aI1941
aI3456
aI5505
aI5506
aI5527
aI3481
aI1436
aI5533
aI1444
aI2162
aI3497
aI4679
aI3500
aI1457
aI1459
aI5559
aI185
aI3514
aI1467
aI5565
aI1471
aI5569
aI5571
aI2294
aI1072
aI5576
aI5577
aI1486
aI1613
aI5584
aI1490
aI3544
aI5593
aI5597
aI3550
aI1503
aI3552
aI3558
aI5609
aI3572
aI5621
aI2233
aI5627
aI3581
aI5631
aI5634
aI939
aI3594
aI3596
aI1549
aI3600
aI5649
aI5651
aI5655
aI283
aI1563
aI5660
aI5303
aI1566
aI5665
aI5666
aI5677
aI1595
aI5696
aI5705
aI5706
aI5709
aI5712
aI3667
aI5716
aI1621
aI1624
aI5723
aI5726
aI3679
aI3685
aI5735
aI5971
aI5738
aI3699
aI3702
aI1655
aI3707
aI1660
aI1663
aI4829
aI1668
aI5767
aI3722
aI5771
aI5773
aI1678
aI3727
aI1683
aI3732
aI4377
aI3534
aI1690
aI1691
aI5790
aI1699
aI1700
aI1712
aI3764
aI1718
aI1719
aI5816
aI5818
aI3776
aI5825
aI1730
aI5827
aI2678
aI5833
aI3021
aI3793
aI5848
aI3801
aI1759
aI1760
aI1762
aI1659
aI5866
aI1774
aI5416
aI5875
aI1785
aI5884
aI1791
aI1794
aI5891
aI5896
aI5897
aI5898
aI1809
aI3860
aI3861
aI5913
aI5916
aI3870
aI1824
aI1829
aI3880
aI1837
aI5935
aI5936
aI5938
aI3379
aI5940
aI5943
aI1848
aI3897
aI3899
aI5948
aI5770
aI3902
aI1858
aI5956
aI5957
aI5958
aI3911
aI4748
aI3914
aI1867
aI5965
aI1870
aI1871
aI3922
aI1875
aI3932
aI1887
aI5984
aI3939
aI5988
aI1897
aI3948
aI1909
aI1910
aI6010
aI1917
aI3968
aI6027
aI3981
aI5428
aI1019
aI6037
aI1946
aI4001
aI4002
aI4007
aI1965
aI1966
aI2768
aI4018
aI1971
aI1972
aI4033
aI1994
aI4043
aI2000
aI2005
aI1360
aI2018
aI5115
aI4073
aI2026
aI4075
aI2034
aI2035
aI2038
aI5119
aI2045
aI4094
aa(lp3
I3079
aI5641
aI2058
aI4107
aI5805
aI4626
aI3502
aI5721
aI1560
aI2075
aI1882
aI30
aI1056
aI433
aI3113
aI555
aI5164
aI861
aI563
aI1033
aI1631
aI1596
aI2109
aI5184
aI701
aI5187
aI68
aI2406
aI3142
aI2120
aI2123
aI4684
aI4194
aI1112
aI2367
aI1630
aI1893
aI3170
aI5219
aI613
aI4713
aI2066
aI2158
aI2749
aI1136
aI1896
aI2675
aI628
aI5751
aI1656
aI633
aI634
aI3196
aI4221
aI5760
aI2752
aI1351
aI5763
aI3717
aI2184
aI1161
aI1163
aI654
aI1168
aI657
aI5268
aI2197
aI5272
aI1732
aI5743
aI4764
aI669
aI5281
aI2210
aI5285
aI4267
aI172
aI2733
aI1710
aI177
aI4276
aI2230
aI2237
aI2240
aI5152
aI4811
aI5316
aI1733
aI1223
aI4983
aI1740
aI3277
aI5309
aI3795
aI1748
aI2773
aI2774
aI2778
aI3291
aI1146
aI1403
aI1767
aI234
aI749
aI1149
aI5360
aI1265
aI3881
aI4168
aI1273
aI4083
aI1790
aI5887
aI1280
aI1911
aI2091
aI5892
aI145
aI4873
aI1290
aI5899
aI1293
aI1697
aI1820
aI5850
aI799
aI2848
aI5073
aI2853
aI3366
aI1321
aI5418
aI5419
aI1324
aI4398
aI2354
aI5941
aI5431
aI1336
aI5947
aI821
aI4417
aI1347
aI4933
aI1862
aI839
aI329
aI4407
aI332
aI333
aI849
aI5973
aI346
aI3420
aI1373
aI5985
aI3429
aI1894
aI1895
aI872
aI2409
aI3947
aI4972
aI4206
aI878
aI3951
aI4464
aI4980
aI6005
aI4982
aI2935
aI888
aI2427
aI5525
aI1412
aI4485
aI5980
aI2028
aI3467
aI5516
aI237
aI947
aI5523
aI3477
aI2966
aI4753
aI2543
aI924
aI3485
aI927
aI2544
aI1445
aI4518
aI412
aI5959
aI942
aI1969
aI5107
aI5557
aI2998
aI3401
aI1951
aI956
aI1469
aI2496
aI5570
aI1099
aI3012
aI965
aI4550
aI5793
aI3851
aI4770
aI2511
aI1488
aI465
aI2002
aI3542
aI1925
aI3545
aI1018
aI480
aI2017
aI4579
aI4580
aI2534
aI4583
aI5099
aI5100
aI2029
aI5615
aI5131
aI497
aI2546
aI1011
aI3578
aI4604
aa(lp4
I4608
aI3188
aI3586
aI4100
aI4101
aI1542
aI4103
aI1032
aI2059
aI2574
aI5135
aI5136
aI3602
aI4115
aI532
aI2222
aI1369
aI4120
aI1561
aI4122
aI2097
aI2589
aI5662
aI4212
aI3618
aI547
aI4132
aI2054
aI3624
aI4138
aI3335
aI4140
aI4160
aI4655
aI5681
aI2100
aI4661
aI1592
aI3642
aI1597
aI4317
aI1088
aI3649
aI4363
aI1605
aI5702
aI3054
aI1355
aI4725
aI2128
aI3310
aI2130
aI5204
aI3086
aI4182
aI1721
aI4184
aI3673
aI2575
aI3676
aI5216
aI4197
aI4710
aI3688
aI3689
aI1642
aI3691
aI620
aI2742
aI5821
aI4724
aI1640
aI2667
aI4883
aI2164
aI2677
aI3190
aI4216
aI1145
aI4735
aI5248
aI1665
aI643
aI3206
aI3207
aI4403
aI3351
aI4236
aI5779
aI1049
aI666
aI4251
aI2205
aI5853
aI659
aI1190
aI3006
aI5427
aI1194
aI3527
aI686
aI3761
aI5491
aI5150
aI1206
aI3767
aI6004
aI698
aI4797
aI2165
aI711
aI1736
aI4809
aI5836
aI4130
aI1171
aI4304
aI2163
aI4309
aI2263
aI2776
aI3289
aI4559
aI1244
aI3805
aI5347
aI740
aI4326
aI2794
aI1260
aI4333
aI4334
aI4336
aI3826
aI756
aI3830
aI5367
aI5880
aI4346
aI254
aI4867
aI4054
aI3846
aI5249
aI1802
aI3339
aI3854
aI2319
aI5277
aI3858
aI1299
aI4373
aI4374
aI1815
aI4378
aI3867
aI304
aI2851
aI646
aI4389
aI295
aI5928
aI5417
aI4487
aI2351
aI3376
aI5425
aI819
aI4406
aI3895
aI3124
aI5946
aI322
aI2187
aI3908
aI481
aI5960
aI4427
aI1356
aI5454
aI4432
aI337
aI3411
aI5535
aI1878
aI3415
aI857
aI858
aI2399
aI1376
aI4451
aI3940
aI3946
aI367
aI4976
aI3441
aI5490
aI371
aI2932
aI3445
aI6006
aI4471
aI3960
aI3964
aI2945
aI6017
aI1515
aI1924
aI3463
aI6024
aI4489
aI3470
aI4495
aI4497
aI6034
aI3989
aI4504
aI2971
aI3996
aI4510
aI415
aI3490
aI4004
aI4519
aI1961
aI2474
aI5549
aI5550
aI5039
aI2992
aI5553
aI969
aI3998
aI4022
aI1975
aI3000
aI5364
aI3999
aI4030
aI4032
aI5658
aI3011
aI4342
aI455
aI4040
aI4041
aI4042
aI1998
aI5583
aI3715
aI4039
aI2624
aI473
aI5594
aI4059
aI5596
aI1840
aI1482
aI4577
aI3043
aI2020
aI998
aI4584
aI3561
aI3563
aI3564
aI5102
aI4093
aI3326
aI3574
aI3066
aI508
aI4010
aa(lp5
I2048
aI0
aI2052
aI4780
aI11
aI2061
aI2063
aI2067
aI20
aI2070
aI345
aI2072
aI4783
aI4124
aI34
aI2083
aI36
aI2087
aI4141
aI48
aI4145
aI4151
aI2105
aI2110
aI66
aI71
aI73
aI74
aI77
aI90
aI4188
aI96
aI3771
aI109
aI3223
aI119
aI4223
aI131
aI2180
aI154
aI4254
aI2207
aI4257
aI163
aI4260
aI4806
aI5393
aI183
aI2232
aI192
aI2243
aI4292
aI374
aI204
aI2258
aI2425
aI2272
aI232
aI2286
aI2872
aI2289
aI2290
aI4343
aI2305
aI2308
aI726
aI4359
aI264
aI5847
aI5328
aI2323
aI4372
aI279
aI2328
aI2331
aI2333
aI2669
aI290
aI2339
aI292
aI2344
aI299
aI302
aI2806
aI311
aI2360
aI2364
aI324
aI326
aI4423
aI4425
aI2378
aI331
aI2385
aI338
aI339
aI4437
aI2392
aI4441
aI3130
aI4446
aI4837
aI4496
aI742
aI361
aI4458
aI2416
aI370
aI4470
aI4473
aI5741
aI384
aI2446
aI400
aI401
aI2453
aI4507
aI4509
aI4511
aI3484
aI4529
aI2482
aI4537
aI4538
aI2463
aI4540
aI446
aI4543
aI453
aI1441
aI2506
aI4557
aI462
aI466
aI2516
aI2519
aI4571
aI4578
aI2531
aI2533
aI4582
aI4588
aI499
aI4598
aI2551
aI506
aI4603
aI2556
aI2560
aI2561
aI2564
aI518
aI2578
aI4629
aI2583
aI4632
aI4636
aI2138
aI550
aI4648
aI557
aI562
aI4662
aI2615
aI573
aI2623
aI578
aI2627
aI2630
aI583
aI2633
aI586
aI2638
aI592
aI593
aI598
aI442
aI2659
aI2660
aI619
aI4716
aI621
aI623
aI624
aI4731
aI638
aI2689
aI644
aI4749
aI2702
aI655
aI4752
aI661
aI4932
aI4761
aI4766
aI672
aI2722
aI2725
aI680
aI4779
aI2732
aI687
aI2737
aI4791
aI705
aI4803
aI2756
aI710
aI4810
aI2167
aI2765
aI4814
aI4822
aI2777
aI730
aI4830
aI4835
aI4902
aI2790
aI4841
aI4842
aI4844
aI4562
aI4854
aI2808
aI2810
aI763
aI4864
aI3883
aI2824
aI2825
aI4878
aI4879
aI2834
aI2179
aI4884
aI4887
aI793
aI795
aI2845
aI4897
aI4901
aI806
aI4903
aI2859
aI2861
aI2862
aI2865
aI820
aI822
aI824
aI2873
aI826
aI4924
aI3210
aI830
aI4928
aI2882
aI835
aI836
aI5601
aI842
aI845
aI4920
aI2903
aI860
aI4957
aI2915
aI4968
aI2877
aI4978
aI2938
aI2941
aI4992
aI5003
aI909
aI2958
aI2959
aI2961
aI5017
aI1940
aI3226
aI5024
aI2978
aI5031
aI5032
aI2988
aI945
aI946
aI4595
aI2996
aI5047
aI4737
aI5692
aI964
aI5066
aI3019
aI3025
aI985
aI5084
aI3038
aI992
aI994
aI5091
aI5094
aI3048
aI3053
aI1008
aI5106
aI5110
aI1016
aI5113
aI443
aI1027
aI5124
aI3077
aI855
aI5134
aI1040
aI5138
aI3092
aI5141
aI3094
aI5145
aI2490
aI1058
aI5159
aI1066
aI5163
aI1068
aI1073
aI1077
aI3126
aI5175
aI5177
aI5178
aI3134
aI1087
aI5189
aI1097
aI5194
aI582
aI1101
aI1103
aI1110
aI1113
aI5211
aI5214
aI5989
aI1127
aI1132
aI3183
aI5233
aI5247
aI3200
aI3203
aI5252
aI5254
aI1160
aI5258
aI5264
aI5265
aI3219
aI5270
aI5271
aI3225
aI5274
aI1179
aI1180
aI3231
aI3232
aI3233
aI3239
aI5288
aI1197
aI5295
aI3252
aI1210
aI3260
aI5319
aI1231
aI3280
aI3281
aI1235
aI3286
aI5336
aI1241
aI1242
aI5339
aI5340
aI5342
aI5345
aI1251
aI4646
aI5329
aI1257
aI1261
aI1264
aI3318
aI3322
aI1679
aI1277
aI1282
aI1284
aI1238
aI5676
aI215
aI5392
aI3345
aI5400
aI5405
aI5409
aI1317
aI3370
aI5421
aI1330
aI5429
aI3383
aI3386
aI1342
aI1346
aI3396
aI5445
aI1352
aI3404
aI5462
aI3416
aI5691
aI1381
aI1385
aI5351
aI5485
aI5488
aI3444
aI5493
aI5497
aI1405
aI1409
aI797
aI5511
aI2626
aI1422
aI1424
aI3474
aI3475
aI3476
aI1432
aI5529
aI5532
aI5536
aI3489
aI5538
aI5541
aI1451
aI3516
aI5566
aI1474
aI1475
aI1476
aI5579
aI3538
aI5587
aI1492
aI1494
aI1505
aI1506
aI5603
aI5607
aI1516
aI3565
aI3571
aI5622
aI1534
aI3583
aI3584
aI5636
aI3597
aI1550
aI3599
aI1552
aI3672
aI5650
aI3605
aI3609
aI1568
aI1570
aI5667
aI5668
aI1573
aI5670
aI5041
aI1578
aI3628
aI1591
aI5690
aI3643
aI5645
aI5699
aI1604
aI5703
aI1614
aI1617
aI1618
aI5720
aI3681
aI1979
aI3687
aI3693
aI5748
aI5753
aI3706
aI5757
aI5761
aI1667
aI1670
aI5769
aI4717
aI1680
aI1682
aI5781
aI3734
aI3737
aI3743
aI1698
aI5785
aI5801
aI1706
aI5803
aI1709
aI5809
aI3763
aI3768
aI5819
aI3779
aI5828
aI3782
aI1313
aI5834
aI2338
aI5838
aI1743
aI1746
aI1747
aI1751
aI1752
aI1754
aI1757
aI5855
aI3812
aI1766
aI3815
aI1769
aI5867
aI3820
aI3823
aI3831
aI5886
aI5889
aI3842
aI1795
aI1796
aI5894
aI3847
aI5906
aI2692
aI5915
aI3872
aI5921
aI1831
aI1832
aI1834
aI1835
aI3884
aI3886
aI3887
aI1842
aI990
aI5944
aI1849
aI1852
aI5953
aI1864
aI1868
aI5970
aI1883
aI3938
aI1891
aI3046
aI3943
aI1898
aI1900
aI3950
aI5096
aI6002
aI1908
aI3390
aI3961
aI3962
aI3966
aI6015
aI1686
aI3975
aI3978
aI6028
aI1936
aI1937
aI6035
aI6036
aI6038
aI6039
aI1944
aI1950
aI1959
aI4008
aI4014
aI4020
aI2718
aI4023
aI1976
aI4027
aI1987
aI4036
aI1014
aI1997
aI4047
aI2001
aI4053
aI4063
aI2022
aI2025
aI2032
aI4082
aI2036
aI2037
aI1705
aI4089
aI2043
aa(lp6
I5510
aI8
aI3074
aI1296
aI17
aI2068
aI23
aI26
aI29
aI4126
aI2079
aI4128
aI39
aI44
aI46
aI4143
aI49
aI53
aI4153
aI58
aI2107
aI4157
aI64
aI2114
aI67
aI2116
aI2117
aI4166
aI4170
aI80
aI4177
aI87
aI88
aI4186
aI91
aI5000
aI97
aI98
aI4195
aI2150
aI4200
aI106
aI107
aI2159
aI113
aI1726
aI2527
aI121
aI123
aI125
aI127
aI4225
aI4230
aI4232
aI137
aI139
aI2190
aI2194
aI2196
aI150
aI2203
aI2204
aI157
aI4255
aI2209
aI2213
aI2215
aI2216
aI1735
aI2221
aI175
aI4272
aI2229
aI182
aI4127
aI4287
aI193
aI3787
aI2247
aI4297
aI4300
aI4472
aI211
aI212
aI4310
aI223
aI224
aI4322
aI4323
aI2278
aI231
aI2287
aI2288
aI242
aI245
aI3486
aI4344
aI249
aI252
aI2306
aI4356
aI385
aI4360
aI266
aI727
aI268
aI270
aI4369
aI275
aI289
aI2525
aI4390
aI2345
aI4394
aI3464
aI306
aI4409
aI394
aI318
aI325
aI4426
aI2380
aI2384
aI2787
aI340
aI625
aI344
aI2395
aI2401
aI2403
aI2404
aI357
aI2412
aI365
aI2421
aI2424
aI5524
aI378
aI4475
aI4477
aI831
aI4482
aI4483
aI2437
aI390
aI3137
aI392
aI2442
aI395
aI4162
aI2449
aI407
aI4506
aI2462
aI4512
aI4515
aI423
aI5606
aI429
aI432
aI2485
aI2486
aI2487
aI441
aI4539
aI2495
aI454
aI4552
aI2505
aI2509
aI2512
aI2467
aI469
aI2524
aI4653
aI478
aI4575
aI485
aI2129
aI488
aI489
aI2541
aI2545
aI4594
aI501
aI2554
aI4605
aI2563
aI516
aI2573
aI2477
aI528
aI4627
aI2580
aI2581
aI536
aI543
aI2596
aI549
aI2598
aI2600
aI2605
aI2606
aI2612
aI2613
aI2616
aI2617
aI4674
aI579
aI4680
aI4681
aI4682
aI2146
aI4687
aI2645
aI2651
aI4701
aI2655
aI2657
aI4706
aI2661
aI2662
aI4712
aI618
aI2670
aI4721
aI626
aI629
aI4729
aI2683
aI4733
aI639
aI1472
aI4738
aI4739
aI4740
aI4742
aI2697
aI2698
aI4747
aI4751
aI2704
aI2706
aI2708
aI4757
aI663
aI2714
aI111
aI2720
aI4771
aI677
aI2730
aI4784
aI4790
aI695
aI2745
aI2746
aI4796
aI3530
aI2750
aI2751
aI4801
aI2754
aI2759
aI4815
aI2772
aI4217
aI729
aI4826
aI731
aI2783
aI2784
aI737
aI738
aI739
aI744
aI4843
aI748
aI2797
aI2798
aI757
aI2071
aI2809
aI4858
aI4863
aI4865
aI4866
aI4868
aI4869
aI775
aI4872
aI2828
aI2830
aI784
aI2833
aI4882
aI3845
aI2837
aI4886
aI2840
aI4890
aI4893
aI805
aI2855
aI4905
aI4911
aI823
aI4460
aI4923
aI2878
aI2879
aI4929
aI4930
aI2884
aI5942
aI838
aI4935
aI4939
aI2892
aI4947
aI4950
aI856
aI4956
aI2910
aI4959
aI864
aI865
aI866
aI868
aI869
aI2924
aI3620
aI2536
aI2933
aI887
aI4987
aI4988
aI2943
aI2944
aI4994
aI2949
aI2951
aI2952
aI5001
aI906
aI5005
aI5009
aI2964
aI5014
aI5023
aI2976
aI929
aI930
aI5027
aI3569
aI936
aI5034
aI2077
aI2989
aI2990
aI5043
aI5044
aI2997
aI951
aI5050
aI955
aI5053
aI5057
aI782
aI5060
aI5067
aI5070
aI3024
aI978
aI3028
aI981
aI3032
aI5081
aI3498
aI993
aI996
aI997
aI5097
aI1002
aI167
aI5629
aI4264
aI3058
aI1020
aI1022
aI1026
aI5125
aI3078
aI5129
aI3087
aI1041
aI1042
aI3588
aI5151
aI5155
aI1060
aI3109
aI5160
aI1074
aI854
aI3127
aI5183
aI2912
aI5192
aI3150
aI5199
aI3152
aI3160
aI1115
aI3549
aI3173
aI1130
aI5232
aI3186
aI3187
aI5237
aI5251
aI1157
aI3213
aI1169
aI5275
aI1186
aI5286
aI1191
aI1196
aI5294
aI2904
aI2836
aI3273
aI3257
aI2591
aI5310
aI1219
aI1222
aI1224
aI1225
aI5327
aI3285
aI3287
aI1240
aI4644
aI1243
aI3293
aI1247
aI3299
aI5348
aI3304
aI3308
aI1262
aI5362
aI3315
aI724
aI1406
aI1272
aI3321
aI1274
aI1275
aI3325
aI5374
aI3328
aI1287
aI3337
aI1292
aI3343
aI5976
aI1306
aI5679
aI5404
aI1309
aI3362
aI1320
aI5737
aI1326
aI1329
aI5438
aI1343
aI1590
aI1350
aI1354
aI5457
aI569
aI3417
aI5469
aI5471
aI1382
aI5479
aI3432
aI1386
aI3436
aI3437
aI1392
aI1400
aI5012
aI3450
aI5499
aI3454
aI3458
aI1411
aI5508
aI1414
aI5512
aI3465
aI5514
aI1420
aI3471
aI3472
aI1427
aI1428
aI5534
aI3488
aI5537
aI1442
aI3493
aI3495
aI5546
aI1456
aI5363
aI1460
aI5558
aI5561
aI1468
aI1470
aI3519
aI3520
aI5574
aI1479
aI5578
aI3459
aI5581
aI2979
aI5589
aI1495
aI5370
aI3554
aI1510
aI5608
aI1514
aI5611
aI5612
aI5613
aI5617
aI5618
aI1523
aI1525
aI3575
aI1551
aI5626
aI1531
aI5628
aI1533
aI3582
aI1535
aI5632
aI1540
aI5637
aI5036
aI5642
aI5646
aI5647
aI5657
aI1565
aI3614
aI1569
aI1572
aI5673
aI605
aI1585
aI1586
aI5683
aI3638
aI1593
aI4703
aI3644
aI4362
aI1603
aI5700
aI1606
aI609
aI4481
aI2658
aI1619
aI1626
aI1628
aI5725
aI5729
aI3682
aI5732
aI5734
aI1641
aI1645
aI5742
aI5744
aI2664
aI3698
aI1651
aI464
aI5749
aI1828
aI3705
aI5754
aI3709
aI5759
aI5762
aI3719
aI3720
aI3724
aI4693
aI2579
aI3731
aI1684
aI3694
aI3738
aI3739
aI5788
aI5792
aI3749
aI1703
aI3753
aI5802
aI1708
aI5806
aI5807
aI1714
aI5811
aI1725
aI3774
aI1728
aI1729
aI3780
aI3783
aI5832
aI1739
aI5840
aI1745
aI3794
aI5844
aI5845
aI3798
aI1657
aI5851
aI5856
aI5859
aI5860
aI5037
aI1772
aI3822
aI4219
aI1782
aI5924
aI5076
aI1788
aI2346
aI3839
aI1797
aI1800
aI2007
aI3853
aI3857
aI3863
aI3864
aI3868
aI1822
aI1827
aI3876
aI2694
aI5926
aI1836
aI1844
aI1846
aI2015
aI3903
aI1856
aI3907
aI5968
aI1873
aI1876
aI5974
aI313
aI1880
aI5977
aI5978
aI2703
aI1892
aI3942
aI658
aI1904
aI4155
aI6003
aI1912
aI4756
aI3963
aI6014
aI1003
aI1928
aI1935
aI1955
aI1956
aI1958
aI1962
aI1973
aI4028
aI4029
aI1986
aI1988
aI1990
aI1999
aI2006
aI4055
aI5797
aI2019
aI2023
aI4078
aI4080
aI2033
aI2039
aI2040
aI4091
aI2044
aI3754
aI4095
aa(lp7
I2049
aI2
aI4099
aI4
aI2053
aI6
aI4104
aI10
aI4108
aI4782
aI24
aI4121
aI28
aI2080
aI342
aI4133
aI43
aI45
aI2094
aI2098
aI56
aI2106
aI63
aI2112
aI5473
aI72
aI12
aI4171
aI82
aI2131
aI4181
aI86
aI1380
aI2139
aI2142
aI2144
aI100
aI4204
aI112
aI115
aI117
aI4215
aI2168
aI122
aI124
aI129
aI4228
aI2182
aI4233
aI4234
aI2188
aI143
aI2192
aI2193
aI4242
aI2195
aI4245
aI4247
aI2200
aI2202
aI164
aI2217
aI170
aI2219
aI174
aI176
aI4273
aI4274
aI184
aI187
aI189
aI3179
aI197
aI2248
aI2257
aI2255
aI209
aI3107
aI2261
aI214
aI2264
aI218
aI2267
aI4316
aI4318
aI4320
aI226
aI230
aI2428
aI2282
aI4331
aI4332
aI243
aI2292
aI251
aI2302
aI4354
aI259
aI262
aI2775
aI4364
aI2093
aI2320
aI2321
aI4370
aI4371
aI2330
aI284
aI288
aI2341
aI2343
aI2780
aI303
aI305
aI2362
aI3466
aI4418
aI323
aI5857
aI2381
aI4438
aI4443
aI2396
aI349
aI5861
aI353
aI356
aI4453
aI4456
aI4459
aI2415
aI4465
aI2419
aI4468
aI2422
aI2426
aI5117
aI382
aI2433
aI388
aI3478
aI2438
aI1104
aI4490
aI2444
aI397
aI398
aI4499
aI404
aI4503
aI2456
aI5188
aI2460
aI414
aI2464
aI5872
aI1612
aI421
aI2471
aI4520
aI426
aI2119
aI428
aI4533
aI3015
aI4544
aI2498
aI417
aI2507
aI2514
aI2517
aI4568
aI2522
aI3834
aI479
aI2529
aI482
aI486
aI4586
aI4593
aI4596
aI4597
aI4602
aI85
aI4613
aI2566
aI2570
aI525
aI4623
aI4624
aI2577
aI535
aI2584
aI4633
aI3503
aI2590
aI2593
aI2594
aI4645
aI2602
aI4652
aI559
aI561
aI2614
aI4663
aI4669
aI4671
aI581
aI4678
aI588
aI4685
aI4688
aI2641
aI2642
aI1123
aI596
aI1807
aI2654
aI2656
aI612
aI4709
aI615
aI4718
aI2671
aI5255
aI4728
aI2681
aI2685
aI642
aI2691
aI4743
aI648
aI2156
aI2699
aI4546
aI4768
aI673
aI4774
aI2503
aI684
aI4781
aI2734
aI688
aI4785
aI690
aI2740
aI4794
aI699
aI1483
aI2758
aI712
aI2761
aI2762
aI4410
aI2770
aI5241
aI2779
aI732
aI2782
aI3195
aI2788
aI4839
aI4840
aI745
aI747
aI4845
aI750
aI3197
aI2802
aI2805
aI758
aI3540
aI2811
aI4860
aI4861
aI2816
aI4870
aI777
aI4874
aI779
aI2832
aI785
aI786
aI787
aI132
aI815
aI2844
aI801
aI4898
aI4900
aI2858
aI811
aI4909
aI2863
aI816
aI4914
aI3891
aI2185
aI828
aI829
aI5259
aI2885
aI6029
aI841
aI843
aI2893
aI2894
aI4943
aI848
aI850
aI2900
aI3215
aI1850
aI873
aI2923
aI2926
aI2927
aI4979
aI4981
aI2936
aI4986
aI891
aI893
aI894
aI895
aI896
aI2946
aI902
aI905
aI5002
aI2955
aI2957
aI915
aI2969
aI922
aI2972
aI925
aI2895
aI2982
aI937
aI2987
aI5045
aI5054
aI3007
aI963
aI966
aI967
aI2760
aI3022
aI3026
aI3030
aI3236
aI847
aI5086
aI5092
aI3049
aI1007
aI3056
aI3061
aI169
aI5112
aI1193
aI4266
aI3070
aI1025
aI171
aI3076
aI1029
aI5975
aI5137
aI1045
aI2871
aI3097
aI5146
aI3099
aI3103
aI1059
aI1062
aI1067
aI5169
aI3123
aI5174
aI2218
aI5176
aI5300
aI5180
aI1085
aI5185
aI1092
aI1095
aI5197
aI5198
aI5200
aI5201
aI1106
aI1107
aI3161
aI3162
aI3164
aI1120
aI1121
aI2235
aI5224
aI3177
aI1131
aI1135
aI5234
aI3189
aI5239
aI3193
aI5243
aI1148
aI5245
aI3789
aI3204
aI5654
aI1159
aI1559
aI3212
aI1218
aI5263
aI3216
aI1178
aI3227
aI1182
aI1183
aI1184
aI5284
aI6001
aI3241
aI5292
aI1199
aI5297
aI1204
aI4638
aI1208
aI5305
aI3259
aI1213
aI3263
aI1216
aI3266
aI545
aI5320
aI5324
aI5325
aI1230
aI1232
aI5331
aI3284
aI5333
aI5334
aI1239
aI5337
aI3292
aI5341
aI1246
aI3296
aI3300
aI3303
aI3305
aI5356
aI5359
aI1267
aI1268
aI3319
aI5369
aI5372
aI4650
aI1278
aI1279
aI3329
aI5378
aI3332
aI1289
aI5386
aI5335
aI5388
aI5389
aI1295
aI1298
aI1304
aI3353
aI3973
aI3360
aI1318
aI5420
aI3374
aI5423
aI1328
aI3377
aI222
aI3382
aI1588
aI5435
aI3637
aI5440
aI5441
aI5448
aI5449
aI3405
aI1359
aI5456
aI1364
aI5461
aI5466
aI3419
aI3421
aI2637
aI5472
aI1377
aI5476
aI1388
aI3438
aI3442
aI3443
aI3449
aI1615
aI3453
aI5502
aI235
aI3462
aI1415
aI1418
aI1421
aI1430
aI1431
aI1433
aI5530
aI1435
aI1438
aI4677
aI1443
aI3492
aI5542
aI5544
aI1450
aI5547
aI1455
aI5552
aI3505
aI3507
aI3508
aI3509
aI3316
aI3515
aI1610
aI1473
aI2636
aI3531
aI3532
aI3533
aI5582
aI3535
aI1491
aI5588
aI5590
aI3543
aI1498
aI1499
aI5602
aI4689
aI1513
aI1517
aI4692
aI1536
aI3585
aI3587
aI3591
aI5640
aI3593
aI1547
aI5648
aI1554
aI1556
aI1557
aI1558
aI3607
aI3610
aI1564
aI1571
aI3621
aI3622
aI1576
aI1579
aI1582
aI1583
aI2644
aI3633
aI5684
aI1589
aI5688
aI3648
aI4704
aI1602
aI3658
aI1611
aI5708
aI5711
aI3670
aI5719
aI5722
aI1627
aI5919
aI1636
aI1637
aI5736
aI5739
aI3692
aI2322
aI3696
aI1649
aI3700
aI3701
aI1654
aI1661
aI5758
aI5765
aI5766
aI5774
aI1681
aI5059
aI5782
aI1687
aI3736
aI1689
aI5786
aI3740
aI5789
aI3746
aI5798
aI5799
aI3752
aI1707
aI3756
aI5808
aI5810
aI5815
aI3772
aI1731
aI1737
aI1741
aI1744
aI5841
aI3797
aI5852
aI293
aI1761
aI3810
aI3813
aI3814
aI5863
aI3818
aI5868
aI5869
aI5871
aI1776
aI1778
aI5878
aI3833
aI1786
aI3835
aI5888
aI3844
aI1799
aI1806
aI5903
aI4056
aI1811
aI3862
aI3871
aI5923
aI5927
aI5929
aI5932
aI3885
aI1839
aI3890
aI5939
aI1845
aI1847
aI3898
aI3901
aI1854
aI1866
aI5972
aI3927
aI517
aI1890
aI5777
aI5998
aI5999
aI1905
aI200
aI3392
aI6019
aI6021
aI3974
aI1927
aI1933
aI6031
aI3992
aI1947
aI1948
aI1952
aI2375
aI1964
aI1967
aI4016
aI1980
aI1985
aI4034
aI4038
aI1992
aI4046
aI4429
aI2004
aI2008
aI3407
aI4060
aI4071
aI2024
aI4079
aI4085
aI4086
aa(lp8
I1
aI3
aI2055
aI2056
aI2060
aI4110
aI15
aI2065
aI2051
aI2074
aI2078
aI31
aI33
aI2085
aI40
aI41
aI4501
aI2096
aI4146
aI51
aI4148
aI2103
aI61
aI4448
aI69
aI4169
aI2124
aI3003
aI4174
aI2127
aI83
aI84
aI2136
aI4185
aI4190
aI2145
aI2147
aI4454
aI4198
aI103
aI4202
aI2157
aI4207
aI4208
aI4213
aI4214
aI120
aI2171
aI2172
aI2174
aI2181
aI134
aI135
aI142
aI4240
aI3096
aI4244
aI149
aI4246
aI153
aI155
aI159
aI161
aI4268
aI4270
aI180
aI181
aI4282
aI4469
aI4288
aI2244
aI4296
aI202
aI1399
aI2253
aI206
aI210
aI217
aI4315
aI2268
aI2269
aI225
aI2274
aI2276
aI233
aI2283
aI2284
aI2285
aI4136
aI4340
aI2295
aI4347
aI4857
aI5162
aI2304
aI2307
aI2311
aI2312
aI2313
aI2316
aI386
aI4368
aI276
aI278
aI280
aI2332
aI2334
aI4388
aI4391
aI296
aI297
aI2350
aI2356
aI309
aI310
aI393
aI4408
aI314
aI2365
aI2366
aI2368
aI4420
aI2374
aI327
aI4430
aI2386
aI4436
aI2389
aI2391
aI2394
aI2400
aI4450
aI2405
aI358
aI2407
aI2408
aI362
aI369
aI4466
aI372
aI373
aI3817
aI4478
aI2431
aI2434
aI391
aI4488
aI2441
aI4491
aI399
aI2450
aI2451
aI405
aI2457
aI2459
aI2466
aI2468
aI2470
aI425
aI4525
aI2480
aI1779
aI436
aI438
aI1439
aI2947
aI445
aI447
aI4545
aI4547
aI2500
aI456
aI459
aI4556
aI3832
aI2126
aI471
aI2520
aI4516
aI4175
aI2198
aI4576
aI766
aI483
aI2532
aI487
aI2537
aI491
aI4589
aI4591
aI2547
aI2814
aI2550
aI4521
aI2552
aI2132
aI2562
aI515
aI4615
aI2568
aI2571
aI1453
aI4630
aI2585
aI2587
aI544
aI2595
aI2597
aI558
aI560
aI2254
aI4660
aI94
aI2201
aI570
aI571
aI4600
aI4675
aI4676
aI4534
aI585
aI4683
aI589
aI4686
aI2639
aI4690
aI595
aI4694
aI2648
aI601
aI602
aI604
aI606
aI5221
aI4180
aI611
aI617
aI2672
aI2674
aI4723
aI632
aI4730
aI645
aI649
aI5229
aI656
aI2707
aI3865
aI665
aI667
aI4765
aI4769
aI980
aI2724
aI2726
aI3364
aI4776
aI4778
aI2731
aI5917
aI5500
aI4786
aI4894
aI694
aI3529
aI696
aI4793
aI2847
aI4802
aI713
aI3191
aI4812
aI4813
aI2766
aI719
aI721
aI723
aI728
aI733
aI743
aI746
aI2799
aI753
aI2803
aI759
aI760
aI761
aI2812
aI4862
aI2815
aI812
aI778
aI4876
aI4881
aI2838
aI792
aI2841
aI2842
aI798
aI4895
aI2849
aI802
aI3427
aI4906
aI2860
aI813
aI4910
aI4912
aI4916
aI4918
aI4922
aI2880
aI4479
aI2887
aI4940
aI846
aI2898
aI2899
aI4952
aI2874
aI3557
aI2913
aI4963
aI870
aI4974
aI2929
aI882
aI2939
aI4989
aI2942
aI898
aI899
aI4996
aI4997
aI3905
aI2953
aI5006
aI5011
aI916
aI1177
aI5016
aI2970
aI2980
aI5029
aI2991
aI236
aI3001
aI5051
aI6033
aI961
aI5058
aI5062
aI3018
aI5068
aI5071
aI5072
aI504
aI3027
aI1493
aI984
aI3033
aI3034
aI987
aI5088
aI5089
aI5093
aI1001
aI3051
aI3389
aI1015
aI5116
aI1021
aI3072
aI1028
aI1034
aI5132
aI514
aI1038
aI3089
aI5143
aI5144
aI5147
aI3100
aI3101
aI3106
aI1064
aI5161
aI3114
aI1543
aI3116
aI5165
aI1203
aI3934
aI1080
aI1082
aI3131
aI3132
aI4277
aI5190
aI5191
aI5193
aI1109
aI5208
aI5209
aI3169
aI1125
aI3174
aI5223
aI5226
aI1133
aI1134
aI3184
aI1140
aI1143
aI5242
aI1151
aI1154
aI5257
aI1164
aI1165
aI5262
aI5315
aI3222
aI1175
aI1176
aI196
aI5276
aI5278
aI3269
aI5280
aI3235
aI1188
aI3237
aI5287
aI3243
aI2930
aI5018
aI1200
aI3249
aI3250
aI3251
aI5302
aI3256
aI1211
aI5311
aI2592
aI3267
aI5317
aI1233
aI5330
aI3283
aI1237
aI3288
aI3290
aI5344
aI3297
aI3298
aI1254
aI5352
aI1259
aI3309
aI3312
aI5361
aI1269
aI2088
aI3324
aI3330
aI5381
aI5384
aI5387
aI452
aI3342
aI1297
aI3347
aI5396
aI5678
aI5399
aI3352
aI1307
aI3356
aI5338
aI5406
aI1312
aI3363
aI1316
aI3369
aI3371
aI1325
aI5422
aI1332
aI5430
aI1340
aI3384
aI1337
aI5436
aI5437
aI5439
aI3393
aI5443
aI5444
aI3397
aI3398
aI2382
aI5453
aI3409
aI5458
aI5464
aI228
aI591
aI1378
aI5475
aI1383
aI1384
aI5483
aI1938
aI1395
aI3646
aI5494
aI3447
aI1401
aI1402
aI3451
aI1404
aI5507
aI3460
aI1413
aI1416
aI5513
aI3473
aI1429
aI3479
aI3483
aI1437
aI3487
aI5299
aI3501
aI1458
aI3510
aI3513
aI5564
aI3522
aI5572
aI1478
aI1481
aI1484
aI1485
aI3536
aI5586
aI3541
aI1496
aI3547
aI3548
aI1502
aI2981
aI5605
aI1512
aI5610
aI1521
aI5620
aI1526
aI5623
aI5625
aI4352
aI5639
aI1546
aI5643
aI1548
aI1553
aI4355
aI3606
aI943
aI3612
aI5661
aI3615
aI3616
aI3619
aI1574
aI3627
aI1580
aI1581
aI3630
aI3631
aI1584
aI5686
aI5693
aI5694
aI5695
aI1608
aI3661
aI269
aI3664
aI3665
aI1620
aI1294
aI3683
aI5740
aI1650
aI1652
aI5750
aI5756
aI3712
aI960
aI1669
aI962
aI5780
aI1685
aI5783
aI3742
aI1696
aI5795
aI1701
aI1702
aI3751
aI5804
aI3757
aI3758
aI5812
aI5813
aI5817
aI1723
aI1724
aI3773
aI3775
aI3781
aI3788
aI1742
aI3945
aI5411
aI3796
aI1749
aI5849
aI3802
aI1755
aI3808
aI5858
aI5862
aI3816
aI5865
aI1773
aI3824
aI979
aI5876
aI1781
aI2003
aI5881
aI5882
aI3836
aI3838
aI5893
aI1798
aI3848
aI5901
aI3855
aI1810
aI5912
aI1817
aI1818
aI3869
aI5922
aI3035
aI4698
aI5930
aI5931
aI1838
aI3888
aI1843
aI5495
aI4745
aI5951
aI3904
aI3040
aI1861
aI3917
aI3920
aI1874
aI3082
aI3931
aI5981
aI5982
aI3936
aI5987
aI3941
aI3944
aI5993
aI3949
aI1903
aI4755
aI3956
aI3958
aI1916
aI6013
aI1922
aI6020
aI6022
aI6023
aI6025
aI3980
aI6030
aI3983
aI6032
aI3985
aI3986
aI3990
aI1943
aI1945
aI1954
aI4005
aI4009
aI1963
aI1968
aI4017
aI565
aI1978
aI1983
aI4035
aI1989
aI1991
aI1996
aI4045
aI4051
aI334
aI4062
aI4068
aI2027
aI4081
aa(lp9
I5
aI9
aI4109
aI4119
aI410
aI32
aI35
aI4142
aI50
aI2099
aI55
aI4152
aI4154
aI1375
aI4158
aI2111
aI65
aI4164
aI4167
aI2122
aI4172
aI5474
aI1037
aI4178
aI2134
aI92
aI2141
aI95
aI99
aI4196
aI4201
aI4455
aI108
aI2160
aI2161
aI118
aI3765
aI4220
aI128
aI2177
aI130
aI4227
aI4243
aI148
aI4462
aI152
aI4250
aI4252
aI4253
aI2206
aI160
aI166
aI4263
aI168
aI5831
aI2225
aI6007
aI4280
aI2234
aI2236
aI1738
aI190
aI4289
aI2245
aI4294
aI2250
aI2251
aI1166
aI4303
aI208
aI216
aI2266
aI4321
aI2275
aI3110
aI2769
aI238
aI240
aI248
aI4348
aI4349
aI4353
aI2310
aI265
aI2314
aI2317
aI4366
aI3117
aI272
aI2327
aI4789
aI285
aI4382
aI4384
aI4386
aI2340
aI2342
aI3016
aI4392
aI4393
aI4395
aI2348
aI4397
aI4400
aI5171
aI4404
aI316
aI317
aI319
aI4419
aI2372
aI4422
aI4492
aI2383
aI2388
aI341
aI2390
aI4442
aI350
aI359
aI360
aI4498
aI366
aI4463
aI368
aI2418
aI4467
aI2423
aI381
aI2432
aI2440
aI396
aI4493
aI4494
aI3480
aI286
aI403
aI402
aI406
aI4505
aI409
aI2458
aI2461
aI4514
aI420
aI2469
aI2472
aI2475
aI4524
aI4526
aI2481
aI4530
aI4851
aI4532
aI439
aI2491
aI2493
aI2494
aI3829
aI449
aI450
aI5022
aI2501
aI2502
aI2504
aI458
aI2508
aI418
aI4558
aI463
aI4560
aI4561
aI4563
aI468
aI4565
aI2518
aI472
aI2521
aI4573
aI484
aI490
aI4587
aI492
aI493
aI2542
aI5885
aI4592
aI503
aI4601
aI2555
aI509
aI4607
aI4611
aI4616
aI5548
aI4618
aI526
aI2576
aI534
aI4275
aI540
aI4637
aI773
aI4642
aI2601
aI4651
aI4654
aI2607
aI4656
aI4659
aI4664
aI2484
aI4668
aI4672
aI577
aI580
aI1804
aI2634
aI2635
aI590
aI781
aI2646
aI4695
aI2649
aI4699
aI2652
aI4707
aI1126
aI616
aI2665
aI2666
aI4715
aI4722
aI2676
aI4542
aI630
aI2153
aI2680
aI2476
aI4732
aI2686
aI640
aI2690
aI2696
aI653
aI2705
aI2709
aI2710
aI4760
aI2713
aI2715
aI2716
aI670
aI671
aI636
aI676
aI4773
aI4775
aI2728
aI4777
aI683
aI2735
aI2736
aI2738
aI2741
aI2743
aI2747
aI702
aI2753
aI707
aI2757
aI4808
aI714
aI718
aI4817
aI4819
aI725
aI4824
aI804
aI4827
aI4833
aI4848
aI4850
aI2515
aI4853
aI4855
aI4564
aI765
aI768
aI2176
aI2820
aI2821
aI4877
aI783
aI794
aI796
aI803
aI2852
aI3641
aI2854
aI5937
aI810
aI477
aI4913
aI2868
aI2869
aI2881
aI834
aI2883
aI4938
aI844
aI4941
aI4942
aI4945
aI2901
aI863
aI4961
aI2914
aI2918
aI871
aI4969
aI2922
aI3559
aI2931
aI885
aI4990
aI897
aI4995
aI900
aI901
aI2950
aI904
aI908
aI910
aI912
aI2962
aI2963
aI918
aI5015
aI923
aI5020
aI2974
aI931
aI932
aI935
aI2984
aI2985
aI2993
aI5042
aI950
aI5049
aI959
aI3008
aI5061
aI5063
aI968
aI3020
aI5069
aI5624
aI5075
aI3029
aI5078
aI5080
aI1192
aI988
aI991
aI999
aI3052
aI1006
aI5103
aI5104
aI5105
aI1010
aI1012
aI5109
aI3064
aI5114
aI3069
aI5118
aI3071
aI2148
aI5123
aI3083
aI1036
aI5133
aI1048
aI5148
aI5149
aI3102
aI3104
aI3248
aI5156
aI1061
aI5158
aI3111
aI1069
aI5167
aI1075
aI1079
aI5179
aI1084
aI5301
aI1089
aI1090
aI1091
aI1098
aI5195
aI5083
aI3151
aI5205
aI5206
aI5213
aI1118
aI1119
aI5217
aI5222
aI1129
aI3178
aI3180
aI5230
aI1137
aI1555
aI5236
aI5238
aI2921
aI1144
aI1147
aI5244
aI4970
aI1153
aI3205
aI5256
aI3209
aI3214
aI1170
aI3221
aI1174
aI1187
aI1189
aI3240
aI5291
aI3246
aI5296
aI3253
aI1212
aI3262
aI1215
aI5312
aI3265
aI5837
aI3272
aI1226
aI3275
aI1228
aI5343
aI2256
aI1915
aI3302
aI1255
aI1575
aI5357
aI3317
aI1270
aI1271
aI5368
aI5371
aI5373
aI1281
aI5380
aI179
aI3334
aI4993
aI1288
aI5391
aI3344
aI1923
aI1300
aI5397
aI3350
aI5401
aI3354
aI4314
aI1310
aI5407
aI5680
aI5410
aI4998
aI5414
aI5415
aI1322
aI1323
aI3375
aI5426
aI1333
aI1334
aI1335
aI5433
aI1338
aI3391
aI1344
aI1348
aI1349
aI5446
aI5004
aI3402
aI1358
aI5455
aI1361
aI5460
aI1367
aI5467
aI3423
aI3425
aI3426
aI5478
aI3431
aI5482
aI3448
aI5498
aI3452
aI5503
aI5504
aI3457
aI5509
aI5515
aI5520
aI1425
aI1426
aI5526
aI5528
aI1434
aI5531
aI5540
aI3494
aI5543
aI1449
aI3499
aI1452
aI1454
aI3504
aI1461
aI5562
aI3517
aI5365
aI5568
aI587
aI1477
aI5575
aI1480
aI5580
aI1487
aI1507
aI3556
aI1509
aI1511
aI3560
aI5714
aI1520
aI1522
aI3576
aI1530
aI1537
aI1538
aI5635
aI5638
aI3592
aI1545
aI3595
aI3601
aI3603
aI1567
aI5664
aI5382
aI5671
aI1577
aI5675
aI3632
aI3634
aI1587
aI5687
aI5689
aI1599
aI5701
aI3654
aI5704
aI4566
aI3662
aI3663
aI3666
aI5717
aI5718
aI1977
aI3674
aI3678
aI5727
aI5730
aI5733
aI1647
aI1648
aI1653
aI1658
aI5755
aI1662
aI3349
aI5056
aI1671
aI1673
aI3723
aI5772
aI5776
aI3729
aI1692
aI3013
aI3747
aI1711
aI5064
aI1715
aI1717
aI3769
aI1311
aI1727
aI3778
aI5829
aI1734
aI3361
aI3785
aI3786
aI2679
aI1314
aI3790
aI5839
aI3792
aI1750
aI5854
aI3809
aI1286
aI1765
aI2684
aI1771
aI3825
aI4734
aI5879
aI1787
aI3837
aI5077
aI3841
aI1803
aI5900
aI5902
aI3856
aI5905
aI5909
aI3866
aI1821
aI1826
aI3875
aI3879
aI3882
aI5933
aI5934
aI3889
aI3894
aI3896
aI5108
aI1857
aI5877
aI1863
aI5963
aI5964
aI5966
aI5979
aI1884
aI1885
aI3935
aI1889
aI5986
aI5990
aI5992
aI5095
aI5997
aI1902
aI6000
aI1906
aI3959
aI6008
aI1913
aI1914
aI6011
aI6012
aI3965
aI1919
aI6016
aI3971
aI1926
aI3976
aI1929
aI6026
aI1932
aI1934
aI2371
aI3988
aI1942
aI3993
aI4361
aI4763
aI3057
aI1960
aI147
aI4015
aI5521
aI1970
aI1634
aI1974
aI4024
aI3060
aI4767
aI4037
aI5522
aI2013
aI4067
aI4072
aI2031
aI681
aI1841
aI2046
aa(lp10
I5120
aI4098
aI2057
aI2050
aI4112
aI18
aI2069
aI4118
aI27
aI4125
aI2081
aI38
aI4135
aI4137
aI2092
aI47
aI4144
aI4787
aI52
aI3422
aI2102
aI57
aI59
aI4156
aI4161
aI75
aI76
aI4173
aI78
aI81
aI4179
aI2137
aI4189
aI4191
aI4192
aI101
aI102
aI104
aI4210
aI5139
aI116
aI2166
aI5140
aI2173
aI126
aI21
aI4229
aI2186
aI4235
aI2189
aI4238
aI4241
aI146
aI1390
aI5487
aI4258
aI4259
aI165
aI4262
aI1393
aI173
aI2223
aI4279
aI4283
aI4284
aI4285
aI2238
aI2239
aI2241
aI4290
aI4291
aI4293
aI4295
aI2249
aI4298
aI205
aI4302
aI4307
aI4308
aI213
aI2262
aI4312
aI221
aI4319
aI227
aI2277
aI4327
aI4330
aI4335
aI4337
aI244
aI4341
aI247
aI2297
aI250
aI2299
aI256
aI258
aI2309
aI4365
aI4367
aI273
aI2326
aI4375
aI4484
aI2335
aI4385
aI291
aI294
aI3650
aI2353
aI315
aI2101
aI4416
aI321
aI4421
aI328
aI2379
aI343
aI2393
aI347
aI348
aI4447
aI4449
aI354
aI355
aI4452
aI4457
aI2410
aI4461
aI375
aI376
aI4474
aI4476
aI2429
aI1339
aI2435
aI2436
aI389
aI4486
aI2113
aI5186
aI408
aI411
aI4508
aI413
aI2465
aI419
aI2473
aI4523
aI430
aI4527
aI434
aI2483
aI437
aI2488
aI444
aI2497
aI451
aI1100
aI4555
aI461
aI2510
aI3491
aI470
aI4567
aI4569
aI4570
aI475
aI476
aI2528
aI4585
aI1447
aI2540
aI4590
aI495
aI498
aI2549
aI502
aI4599
aI505
aI507
aI2557
aI2558
aI513
aI4612
aI523
aI2572
aI4622
aI527
aI529
aI531
aI2582
aI89
aI4634
aI4635
aI541
aI4643
aI548
aI556
aI93
aI2608
aI4657
aI4658
aI4667
aI2621
aI2622
aI2625
aI2629
aI2632
aI1464
aI4691
aI597
aI599
aI4696
aI2650
aI608
aI5904
aI614
aI4714
aI2668
aI4719
aI627
aI631
aI637
aI647
aI650
aI2499
aI660
aI2711
aI5614
aI668
aI1150
aI679
aI2729
aI689
aI691
aI4788
aI693
aI697
aI2748
aI704
aI706
aI2755
aI4805
aI715
aI717
aI2767
aI722
aI2771
aI2479
aI4823
aI4825
aI4831
aI2785
aI741
aI3537
aI2792
aI2795
aI2796
aI4847
aI2801
aI3198
aI2807
aI764
aI769
aI770
aI2819
aI2823
aI788
aI789
aI4888
aI474
aI2846
aI133
aI2850
aI4904
aI4572
aI814
aI817
aI818
aI4915
aI4917
aI2870
aI827
aI2876
aI138
aI4926
aI4931
aI837
aI4936
aI2890
aI4944
aI4949
aI2902
aI2905
aI2906
aI2909
aI862
aI4965
aI4966
aI4967
aI2920
aI2143
aI875
aI876
aI4973
aI879
aI883
aI884
aI1666
aI4985
aI2940
aI2956
aI2960
aI914
aI3566
aI919
aI920
aI3567
aI2973
aI926
aI928
aI933
aI934
aI5033
aI2986
aI5040
aI949
aI2999
aI952
aI953
aI5052
aI3005
aI5010
aI3010
aI3017
aI972
aI5282
aI974
aI976
aI5074
aI983
aI2965
aI3037
aI5087
aI5090
aI2214
aI3047
aI5101
aI1009
aI3063
aI1017
aI3921
aI1024
aI5122
aI1057
aI5126
aI4609
aI3080
aI675
aI3084
aI3245
aI3091
aI1044
aI3093
aI1050
aI1052
aI5153
aI5154
aI5157
aI1202
aI5166
aI3120
aI5170
aI5172
aI1078
aI5983
aI1086
aI3135
aI3138
aI3139
aI3143
aI1096
aI3145
aI2231
aI3148
aI1102
aI5202
aI3157
aI3158
aI5207
aI1114
aI3258
aI3168
aI1122
aI3171
aI3172
aI4129
aI1128
aI3181
aI3185
aI1138
aI1139
aI3192
aI191
aI874
aI5246
aI1155
aI5253
aI4222
aI3208
aI1162
aI5261
aI1167
aI5656
aI5266
aI5267
aI5269
aI3228
aI3229
aI1185
aI3234
aI5283
aI3238
aI5290
aI5293
aI1198
aI5298
aI1907
aI1205
aI5304
aI1209
aI5306
aI5307
aI3261
aI1227
aI1221
aI5322
aI5323
aI3276
aI3278
aI4301
aI5332
aI2937
aI1245
aI3294
aI1248
aI1250
aI5350
aI3306
aI3307
aI5358
aI3311
aI3314
aI5366
aI3323
aI5375
aI5377
aI3336
aI3338
aI1291
aI5390
aI5394
aI5395
aI1301
aI5398
aI1305
aI5403
aI3359
aI1319
aI2610
aI3385
aI2271
aI1345
aI5442
aI3399
aI3400
aI3403
aI5452
aI1362
aI1368
aI1374
aI5008
aI1379
aI3428
aI5480
aI5481
aI3435
aI5484
aI1389
aI5486
aI1391
aI5489
aI3987
aI5492
aI574
aI5496
aI1258
aI3455
aI1410
aI3461
aI5517
aI5518
aI2968
aI3482
aI1263
aI1440
aI5539
aI1446
aI241
aI5545
aI5551
aI584
aI5554
aI5555
aI3512
aI5563
aI3518
aI3521
aI5707
aI3524
aI5573
aI3528
aI5585
aI5592
aI3546
aI5595
aI1500
aI5598
aI5600
aI3553
aI3555
aI5604
aI1518
aI1519
aI3568
aI1528
aI3577
aI3327
aI1532
aI5630
aI5633
aI1756
aI1541
aI1544
aI3598
aI3604
aI5653
aI3608
aI1562
aI5659
aI3613
aI5663
aI5674
aI3629
aI5682
aI3635
aI3636
aI3639
aI3640
aI3645
aI735
aI5697
aI5698
aI3653
aI3656
aI1609
aI3659
aI5715
aI3669
aI1623
aI1625
aI3675
aI5724
aI1632
aI1633
aI5731
aI3684
aI1638
aI3686
aI3690
aI1643
aI1644
aI3695
aI5745
aI5747
aI3704
aI3708
aI3711
aI3713
aI3714
aI3716
aI3718
aI1672
aI1674
aI1676
aI1677
aI3728
aI3730
aI3733
aI1688
aI3741
aI1694
aI3744
aI5796
aI3697
aI1704
aI3759
aI1713
aI3762
aI1830
aI1716
aI1722
aI4383
aI5826
aI4727
aI3791
aI5842
aI5846
aI3799
aI3804
aI3811
aI1764
aI3819
aI3821
aI5873
aI5874
aI3827
aI1783
aI1784
aI5883
aI5890
aI5895
aI1801
aI1805
aI1808
aI5907
aI1813
aI5911
aI5764
aI5914
aI5918
aI1823
aI5920
aI1825
aI3874
aI3878
aI1833
aI3893
aI5945
aI1851
aI5950
aI5952
aI2016
aI5954
aI1859
aI1860
aI3910
aI3912
aI1865
aI3915
aI3916
aI1869
aI3918
aI3725
aI5969
aI3923
aI3924
aI1879
aI3929
aI1886
aI2021
aI1888
aI4411
aI5991
aI5994
aI1899
aI5996
aI3953
aI3955
aI2723
aI3967
aI1921
aI6018
aI2369
aI3977
aI3982
aI1005
aI1939
aI3995
aI3859
aI4003
aI4006
aI4011
aI4012
aI1693
aI4424
aI4019
aI4021
aI4025
aI1982
aI4031
aI5451
aI1993
aI5111
aI4049
aI1635
aI3065
aI3748
aI2011
aI2012
aI4090
aI2014
aI4064
aI4069
aI4076
aI4077
aI2030
aI5800
aI4088
aI2041
aI2042
aI4092
aI2047
aa.